	.section	__TEXT,__text,regular,pure_instructions
	.build_version macos, 13, 0	sdk_version 13, 3
	.file	1 "/Users/warren/Development/Github/Tirja/lexer" "./tokens.h"
	.globl	_token_array_compare            ; -- Begin function token_array_compare
	.p2align	2
_token_array_compare:                   ; @token_array_compare
Lfunc_begin0:
	.file	2 "/Users/warren/Development/Github/Tirja/lexer" "test.c"
	.loc	2 10 0                          ; test.c:10:0
	.cfi_startproc
; %bb.0:
	sub	sp, sp, #144
	.cfi_def_cfa_offset 144
	stp	x29, x30, [sp, #128]            ; 16-byte Folded Spill
	add	x29, sp, #128
	.cfi_def_cfa w29, 16
	.cfi_offset w30, -8
	.cfi_offset w29, -16
	stur	x0, [x29, #-8]
	stur	x1, [x29, #-16]
	stur	x2, [x29, #-24]
	mov	w8, #1
Ltmp0:
	.loc	2 11 9 prologue_end             ; test.c:11:9
	stur	w8, [x29, #-28]
	.loc	2 13 34                         ; test.c:13:34
	ldur	x8, [x29, #-8]
	.loc	2 13 5 is_stmt 0                ; test.c:13:5
	mov	x9, sp
	str	x8, [x9]
	.loc	2 0 0                           ; test.c:0:0
	adrp	x0, l_.str@PAGE
	add	x0, x0, l_.str@PAGEOFF
	.loc	2 13 5                          ; test.c:13:5
	bl	_printf
	.loc	2 15 55 is_stmt 1               ; test.c:15:55
	ldur	x0, [x29, #-8]
	.loc	2 15 27 is_stmt 0               ; test.c:15:27
	bl	_token_array_get_from_string
	stur	x0, [x29, #-48]
	stur	x1, [x29, #-40]
Ltmp1:
	.loc	2 17 9 is_stmt 1                ; test.c:17:9
	ldur	x8, [x29, #-24]
	.loc	2 17 41 is_stmt 0               ; test.c:17:41
	ldursw	x9, [x29, #-40]
	.loc	2 17 30                         ; test.c:17:30
	subs	x8, x8, x9
	cset	w8, eq
Ltmp2:
	.loc	2 17 9                          ; test.c:17:9
	tbnz	w8, #0, LBB0_2
	b	LBB0_1
LBB0_1:
Ltmp3:
	.loc	2 0 0                           ; test.c:0:0
	adrp	x8, ___stderrp@GOTPAGE
	ldr	x8, [x8, ___stderrp@GOTPAGEOFF]
Ltmp4:
	.loc	2 19 17 is_stmt 1               ; test.c:19:17
	ldr	x0, [x8]
	.loc	2 0 0 is_stmt 0                 ; test.c:0:0
	adrp	x1, l_.str.1@PAGE
	add	x1, x1, l_.str.1@PAGEOFF
	.loc	2 19 9                          ; test.c:19:9
	bl	_fprintf
	sub	x0, x29, #48
	.loc	2 20 9 is_stmt 1                ; test.c:20:9
	bl	_token_array_print
	mov	w8, #-1
	.loc	2 21 14                         ; test.c:21:14
	stur	w8, [x29, #-28]
	.loc	2 22 5                          ; test.c:22:5
	b	LBB0_10
Ltmp5:
LBB0_2:
	.loc	2 25 18                         ; test.c:25:18
	stur	wzr, [x29, #-52]
	.loc	2 25 14 is_stmt 0               ; test.c:25:14
	b	LBB0_3
LBB0_3:                                 ; =>This Inner Loop Header: Depth=1
Ltmp6:
	.loc	2 25 25                         ; test.c:25:25
	ldursw	x8, [x29, #-52]
	.loc	2 25 29                         ; test.c:25:29
	ldur	x9, [x29, #-24]
	.loc	2 25 27                         ; test.c:25:27
	subs	x8, x8, x9
	cset	w8, hs
Ltmp7:
	.loc	2 25 9                          ; test.c:25:9
	tbnz	w8, #0, LBB0_9
	b	LBB0_4
LBB0_4:                                 ;   in Loop: Header=BB0_3 Depth=1
Ltmp8:
	.loc	2 26 85 is_stmt 1               ; test.c:26:85
	ldur	x8, [x29, #-48]
	.loc	2 26 92 is_stmt 0               ; test.c:26:92
	ldursw	x9, [x29, #-52]
	.loc	2 26 77                         ; test.c:26:77
	lsl	x9, x9, #4
	.loc	2 26 95                         ; test.c:26:95
	ldr	w0, [x8, x9]
	.loc	2 26 56                         ; test.c:26:56
	bl	_token_type_to_string
	.loc	2 26 49                         ; test.c:26:49
	bl	_strlen
	.loc	2 26 20                         ; test.c:26:20
	str	x0, [sp, #64]
	.loc	2 27 64 is_stmt 1               ; test.c:27:64
	ldur	x8, [x29, #-48]
	.loc	2 27 71 is_stmt 0               ; test.c:27:71
	ldursw	x9, [x29, #-52]
	.loc	2 27 56                         ; test.c:27:56
	add	x8, x8, x9, lsl #4
	.loc	2 27 74                         ; test.c:27:74
	ldr	x0, [x8, #8]
	.loc	2 27 49                         ; test.c:27:49
	bl	_strlen
	.loc	2 27 20                         ; test.c:27:20
	str	x0, [sp, #56]
	.loc	2 29 112 is_stmt 1              ; test.c:29:112
	ldur	x8, [x29, #-16]
	.loc	2 29 128 is_stmt 0              ; test.c:29:128
	ldursw	x9, [x29, #-52]
	.loc	2 29 112                        ; test.c:29:112
	lsl	x9, x9, #4
	.loc	2 29 131                        ; test.c:29:131
	ldr	w0, [x8, x9]
	.loc	2 29 91                         ; test.c:29:91
	bl	_token_type_to_string
	str	x0, [sp, #40]                   ; 8-byte Folded Spill
	.loc	2 29 138                        ; test.c:29:138
	ldur	x8, [x29, #-16]
	.loc	2 29 154                        ; test.c:29:154
	ldursw	x9, [x29, #-52]
	.loc	2 29 138                        ; test.c:29:138
	add	x8, x8, x9, lsl #4
	.loc	2 29 157                        ; test.c:29:157
	ldr	x8, [x8, #8]
	str	x8, [sp, #48]                   ; 8-byte Folded Spill
	.loc	2 30 46 is_stmt 1               ; test.c:30:46
	ldur	x8, [x29, #-48]
	.loc	2 30 53 is_stmt 0               ; test.c:30:53
	ldursw	x9, [x29, #-52]
	.loc	2 30 38                         ; test.c:30:38
	lsl	x9, x9, #4
	.loc	2 30 56                         ; test.c:30:56
	ldr	w0, [x8, x9]
	.loc	2 30 17                         ; test.c:30:17
	bl	_token_type_to_string
	ldr	x11, [sp, #40]                  ; 8-byte Folded Reload
	ldr	x10, [sp, #48]                  ; 8-byte Folded Reload
	.loc	2 30 71                         ; test.c:30:71
	ldur	x8, [x29, #-48]
	.loc	2 30 78                         ; test.c:30:78
	ldursw	x9, [x29, #-52]
	.loc	2 30 63                         ; test.c:30:63
	add	x8, x8, x9, lsl #4
	.loc	2 30 81                         ; test.c:30:81
	ldr	x8, [x8, #8]
	.loc	2 29 13 is_stmt 1               ; test.c:29:13
	mov	x9, sp
	str	x11, [x9]
	str	x10, [x9, #8]
	str	x0, [x9, #16]
	str	x8, [x9, #24]
	.loc	2 0 0 is_stmt 0                 ; test.c:0:0
	adrp	x0, l_.str.2@PAGE
	add	x0, x0, l_.str.2@PAGEOFF
	.loc	2 29 13                         ; test.c:29:13
	bl	_printf
Ltmp9:
	.loc	2 32 26 is_stmt 1               ; test.c:32:26
	ldur	x8, [x29, #-16]
	.loc	2 32 42 is_stmt 0               ; test.c:32:42
	ldursw	x9, [x29, #-52]
	.loc	2 32 26                         ; test.c:32:26
	add	x8, x8, x9, lsl #4
	.loc	2 32 45                         ; test.c:32:45
	ldr	x0, [x8, #8]
	.loc	2 32 61                         ; test.c:32:61
	ldur	x8, [x29, #-48]
	.loc	2 32 68                         ; test.c:32:68
	ldursw	x9, [x29, #-52]
	.loc	2 32 53                         ; test.c:32:53
	add	x8, x8, x9, lsl #4
	.loc	2 32 71                         ; test.c:32:71
	ldr	x1, [x8, #8]
	.loc	2 32 79                         ; test.c:32:79
	ldr	x2, [sp, #56]
	.loc	2 32 18                         ; test.c:32:18
	bl	_strncmp
	.loc	2 32 103                        ; test.c:32:103
	subs	w8, w0, #0
	cset	w8, ne
	.loc	2 32 109                        ; test.c:32:109
	tbnz	w8, #0, LBB0_6
	b	LBB0_5
LBB0_5:                                 ;   in Loop: Header=BB0_3 Depth=1
	.loc	2 33 55 is_stmt 1               ; test.c:33:55
	ldur	x8, [x29, #-48]
	.loc	2 33 62 is_stmt 0               ; test.c:33:62
	ldursw	x9, [x29, #-52]
	.loc	2 33 47                         ; test.c:33:47
	lsl	x9, x9, #4
	.loc	2 33 65                         ; test.c:33:65
	ldr	w0, [x8, x9]
	.loc	2 33 26                         ; test.c:33:26
	bl	_token_type_to_string
	str	x0, [sp, #32]                   ; 8-byte Folded Spill
	.loc	2 33 93                         ; test.c:33:93
	ldur	x8, [x29, #-16]
	.loc	2 33 109                        ; test.c:33:109
	ldursw	x9, [x29, #-52]
	.loc	2 33 93                         ; test.c:33:93
	lsl	x9, x9, #4
	.loc	2 33 112                        ; test.c:33:112
	ldr	w0, [x8, x9]
	.loc	2 33 72                         ; test.c:33:72
	bl	_token_type_to_string
	mov	x1, x0
	ldr	x0, [sp, #32]                   ; 8-byte Folded Reload
	.loc	2 33 119                        ; test.c:33:119
	ldr	x2, [sp, #64]
	.loc	2 33 18                         ; test.c:33:18
	bl	_strncmp
	.loc	2 33 147                        ; test.c:33:147
	subs	w8, w0, #0
	cset	w8, eq
Ltmp10:
	.loc	2 32 17 is_stmt 1               ; test.c:32:17
	tbnz	w8, #0, LBB0_7
	b	LBB0_6
LBB0_6:
Ltmp11:
	.loc	2 0 0 is_stmt 0                 ; test.c:0:0
	adrp	x8, ___stderrp@GOTPAGE
	ldr	x8, [x8, ___stderrp@GOTPAGEOFF]
	.loc	2 35 25 is_stmt 1               ; test.c:35:25
	ldr	x0, [x8]
	.loc	2 35 72 is_stmt 0               ; test.c:35:72
	ldur	x8, [x29, #-48]
	.loc	2 35 79                         ; test.c:35:79
	ldursw	x9, [x29, #-52]
	.loc	2 35 64                         ; test.c:35:64
	add	x8, x8, x9, lsl #4
	.loc	2 35 82                         ; test.c:35:82
	ldr	x10, [x8, #8]
	.loc	2 35 90                         ; test.c:35:90
	ldur	x8, [x29, #-16]
	.loc	2 35 106                        ; test.c:35:106
	ldursw	x9, [x29, #-52]
	.loc	2 35 90                         ; test.c:35:90
	add	x8, x8, x9, lsl #4
	.loc	2 35 109                        ; test.c:35:109
	ldr	x8, [x8, #8]
	.loc	2 35 17                         ; test.c:35:17
	mov	x9, sp
	str	x10, [x9]
	str	x8, [x9, #8]
	.loc	2 0 0                           ; test.c:0:0
	adrp	x1, l_.str.3@PAGE
	add	x1, x1, l_.str.3@PAGEOFF
	.loc	2 35 17                         ; test.c:35:17
	bl	_fprintf
	mov	w8, #-1
	.loc	2 36 22 is_stmt 1               ; test.c:36:22
	stur	w8, [x29, #-28]
	.loc	2 37 17                         ; test.c:37:17
	b	LBB0_9
Ltmp12:
LBB0_7:                                 ;   in Loop: Header=BB0_3 Depth=1
	.loc	2 39 9                          ; test.c:39:9
	b	LBB0_8
Ltmp13:
LBB0_8:                                 ;   in Loop: Header=BB0_3 Depth=1
	.loc	2 25 52                         ; test.c:25:52
	ldur	w8, [x29, #-52]
	add	w8, w8, #1
	stur	w8, [x29, #-52]
	.loc	2 25 9 is_stmt 0                ; test.c:25:9
	b	LBB0_3
Ltmp14:
LBB0_9:
	.loc	2 0 9                           ; test.c:0:9
	b	LBB0_10
LBB0_10:
	sub	x0, x29, #48
	.loc	2 42 5 is_stmt 1                ; test.c:42:5
	bl	_token_array_free
	.loc	2 45 12                         ; test.c:45:12
	ldur	w0, [x29, #-28]
	.loc	2 45 5 is_stmt 0                ; test.c:45:5
	ldp	x29, x30, [sp, #128]            ; 16-byte Folded Reload
	add	sp, sp, #144
	ret
Ltmp15:
Lfunc_end0:
	.cfi_endproc
                                        ; -- End function
	.globl	_test_tokenize_string_to_array  ; -- Begin function test_tokenize_string_to_array
	.p2align	2
_test_tokenize_string_to_array:         ; @test_tokenize_string_to_array
Lfunc_begin1:
	.loc	2 49 0 is_stmt 1                ; test.c:49:0
	.cfi_startproc
; %bb.0:
	sub	sp, sp, #80
	.cfi_def_cfa_offset 80
	stp	x29, x30, [sp, #64]             ; 16-byte Folded Spill
	add	x29, sp, #64
	.cfi_def_cfa w29, 16
	.cfi_offset w30, -8
	.cfi_offset w29, -16
	stur	x0, [x29, #-8]
	stur	x1, [x29, #-16]
	stur	x2, [x29, #-24]
	stur	w3, [x29, #-28]
	str	x4, [sp, #24]
Ltmp16:
	.loc	2 50 29 prologue_end            ; test.c:50:29
	ldur	x0, [x29, #-8]
	.loc	2 50 42 is_stmt 0               ; test.c:50:42
	ldur	x1, [x29, #-16]
	.loc	2 50 64                         ; test.c:50:64
	ldur	x2, [x29, #-24]
	.loc	2 50 9                          ; test.c:50:9
	bl	_token_array_compare
	.loc	2 50 85                         ; test.c:50:85
	subs	w8, w0, #1
	cset	w8, ne
Ltmp17:
	.loc	2 50 9                          ; test.c:50:9
	tbnz	w8, #0, LBB1_2
	b	LBB1_1
LBB1_1:
Ltmp18:
	.loc	2 0 0                           ; test.c:0:0
	adrp	x8, ___stdoutp@GOTPAGE
	ldr	x8, [x8, ___stdoutp@GOTPAGEOFF]
	.loc	2 51 17 is_stmt 1               ; test.c:51:17
	ldr	x0, [x8]
	.loc	2 51 49 is_stmt 0               ; test.c:51:49
	ldur	w8, [x29, #-28]
                                        ; implicit-def: $x10
	mov	x10, x8
	.loc	2 51 62                         ; test.c:51:62
	ldr	x8, [sp, #24]
	.loc	2 51 9                          ; test.c:51:9
	mov	x9, sp
	str	x10, [x9]
	str	x8, [x9, #8]
	.loc	2 0 0                           ; test.c:0:0
	adrp	x1, l_.str.4@PAGE
	add	x1, x1, l_.str.4@PAGEOFF
	.loc	2 51 9                          ; test.c:51:9
	bl	_fprintf
	b	LBB1_3
LBB1_2:
	.loc	2 0 0                           ; test.c:0:0
	adrp	x8, ___stderrp@GOTPAGE
	ldr	x8, [x8, ___stderrp@GOTPAGEOFF]
	.loc	2 53 17 is_stmt 1               ; test.c:53:17
	ldr	x0, [x8]
	.loc	2 53 49 is_stmt 0               ; test.c:53:49
	ldur	w8, [x29, #-28]
                                        ; implicit-def: $x10
	mov	x10, x8
	.loc	2 53 62                         ; test.c:53:62
	ldr	x8, [sp, #24]
	.loc	2 53 9                          ; test.c:53:9
	mov	x9, sp
	str	x10, [x9]
	str	x8, [x9, #8]
	.loc	2 0 0                           ; test.c:0:0
	adrp	x1, l_.str.5@PAGE
	add	x1, x1, l_.str.5@PAGEOFF
	.loc	2 53 9                          ; test.c:53:9
	bl	_fprintf
	b	LBB1_3
Ltmp19:
LBB1_3:
	.loc	2 54 1 is_stmt 1                ; test.c:54:1
	ldp	x29, x30, [sp, #64]             ; 16-byte Folded Reload
	add	sp, sp, #80
	ret
Ltmp20:
Lfunc_end1:
	.cfi_endproc
                                        ; -- End function
	.globl	_main                           ; -- Begin function main
	.p2align	2
_main:                                  ; @main
Lfunc_begin2:
	.loc	2 58 0                          ; test.c:58:0
	.cfi_startproc
; %bb.0:
	stp	x28, x27, [sp, #-32]!           ; 16-byte Folded Spill
	.cfi_def_cfa_offset 32
	stp	x29, x30, [sp, #16]             ; 16-byte Folded Spill
	add	x29, sp, #16
	.cfi_def_cfa w29, 16
	.cfi_offset w30, -8
	.cfi_offset w29, -16
	.cfi_offset w27, -24
	.cfi_offset w28, -32
	mov	w9, #5904
	adrp	x16, ___chkstk_darwin@GOTPAGE
	ldr	x16, [x16, ___chkstk_darwin@GOTPAGEOFF]
	blr	x16
	sub	sp, sp, #1, lsl #12             ; =4096
	sub	sp, sp, #1808
	adrp	x8, ___stack_chk_guard@GOTPAGE
	ldr	x8, [x8, ___stack_chk_guard@GOTPAGEOFF]
	ldr	x8, [x8]
	stur	x8, [x29, #-24]
	mov	w8, #0
	str	w8, [sp, #20]                   ; 4-byte Folded Spill
	str	wzr, [sp, #468]
	str	w0, [sp, #464]
	str	x1, [sp, #456]
Ltmp21:
	.loc	2 0 0 is_stmt 0                 ; test.c:0:0
	adrp	x8, l_.str.6@PAGE
	add	x8, x8, l_.str.6@PAGEOFF
	.loc	2 63 17 prologue_end is_stmt 1  ; test.c:63:17
	str	x8, [sp, #448]
	sub	x0, x29, #88
	str	x0, [sp, #8]                    ; 8-byte Folded Spill
	.loc	2 0 0 is_stmt 0                 ; test.c:0:0
	adrp	x1, l___const.main.incorrect_tokens_expected@PAGE
	add	x1, x1, l___const.main.incorrect_tokens_expected@PAGEOFF
	mov	x2, #64
	str	x2, [sp, #224]                  ; 8-byte Folded Spill
	.loc	2 64 11 is_stmt 1               ; test.c:64:11
	bl	_memcpy
	ldr	x1, [sp, #8]                    ; 8-byte Folded Reload
	ldr	w3, [sp, #20]                   ; 4-byte Folded Reload
	mov	x8, #4
	str	x8, [sp, #232]                  ; 8-byte Folded Spill
	.loc	2 68 12                         ; test.c:68:12
	str	x8, [sp, #440]
	.loc	2 69 35                         ; test.c:69:35
	ldr	x0, [sp, #448]
	.loc	2 69 73 is_stmt 0               ; test.c:69:73
	ldr	x2, [sp, #440]
	.loc	2 0 0                           ; test.c:0:0
	adrp	x4, l_.str.11@PAGE
	add	x4, x4, l_.str.11@PAGEOFF
	.loc	2 69 5                          ; test.c:69:5
	bl	_test_tokenize_string_to_array
	.loc	2 0 0                           ; test.c:0:0
	adrp	x8, l_.str.12@PAGE
	add	x8, x8, l_.str.12@PAGEOFF
	.loc	2 78 17 is_stmt 1               ; test.c:78:17
	str	x8, [sp, #432]
	add	x0, sp, #1, lsl #12             ; =4096
	add	x0, x0, #1512
	str	x0, [sp, #24]                   ; 8-byte Folded Spill
	.loc	2 0 0 is_stmt 0                 ; test.c:0:0
	adrp	x1, l___const.main.test_too_many_decimals_expected@PAGE
	add	x1, x1, l___const.main.test_too_many_decimals_expected@PAGEOFF
	mov	x2, #224
	str	x2, [sp, #152]                  ; 8-byte Folded Spill
	.loc	2 80 11 is_stmt 1               ; test.c:80:11
	bl	_memcpy
	ldr	x1, [sp, #24]                   ; 8-byte Folded Reload
	mov	x8, #14
	str	x8, [sp, #160]                  ; 8-byte Folded Spill
	.loc	2 86 25                         ; test.c:86:25
	str	x8, [sp, #440]
	.loc	2 87 35                         ; test.c:87:35
	ldr	x0, [sp, #432]
	.loc	2 87 92 is_stmt 0               ; test.c:87:92
	ldr	x2, [sp, #440]
	mov	w3, #1
	.loc	2 0 0                           ; test.c:0:0
	adrp	x4, l_.str.23@PAGE
	add	x4, x4, l_.str.23@PAGEOFF
	.loc	2 87 5                          ; test.c:87:5
	bl	_test_tokenize_string_to_array
	.loc	2 0 0                           ; test.c:0:0
	adrp	x8, l_.str.24@PAGE
	add	x8, x8, l_.str.24@PAGEOFF
	.loc	2 96 17 is_stmt 1               ; test.c:96:17
	str	x8, [sp, #424]
	add	x0, sp, #1, lsl #12             ; =4096
	add	x0, x0, #984
	str	x0, [sp, #32]                   ; 8-byte Folded Spill
	.loc	2 0 0 is_stmt 0                 ; test.c:0:0
	adrp	x1, l___const.main.test_valid_decimals_expected@PAGE
	add	x1, x1, l___const.main.test_valid_decimals_expected@PAGEOFF
	mov	x2, #528
	.loc	2 98 11 is_stmt 1               ; test.c:98:11
	bl	_memcpy
	ldr	x1, [sp, #32]                   ; 8-byte Folded Reload
	mov	x8, #33
	.loc	2 108 25                        ; test.c:108:25
	str	x8, [sp, #440]
	.loc	2 109 35                        ; test.c:109:35
	ldr	x0, [sp, #424]
	.loc	2 109 86 is_stmt 0              ; test.c:109:86
	ldr	x2, [sp, #440]
	mov	w3, #2
	.loc	2 0 0                           ; test.c:0:0
	adrp	x4, l_.str.35@PAGE
	add	x4, x4, l_.str.35@PAGEOFF
	.loc	2 109 5                         ; test.c:109:5
	bl	_test_tokenize_string_to_array
	.loc	2 0 0                           ; test.c:0:0
	adrp	x8, l_.str.36@PAGE
	add	x8, x8, l_.str.36@PAGEOFF
	.loc	2 119 17 is_stmt 1              ; test.c:119:17
	str	x8, [sp, #416]
	add	x0, sp, #1, lsl #12             ; =4096
	add	x0, x0, #856
	str	x0, [sp, #40]                   ; 8-byte Folded Spill
	.loc	2 0 0 is_stmt 0                 ; test.c:0:0
	adrp	x1, l___const.main.test_invalid_increment_expected@PAGE
	add	x1, x1, l___const.main.test_invalid_increment_expected@PAGEOFF
	mov	x2, #128
	str	x2, [sp, #96]                   ; 8-byte Folded Spill
	.loc	2 120 11 is_stmt 1              ; test.c:120:11
	bl	_memcpy
	ldr	x1, [sp, #40]                   ; 8-byte Folded Reload
	mov	x8, #8
	str	x8, [sp, #104]                  ; 8-byte Folded Spill
	.loc	2 125 25                        ; test.c:125:25
	str	x8, [sp, #440]
	.loc	2 126 35                        ; test.c:126:35
	ldr	x0, [sp, #416]
	.loc	2 126 92 is_stmt 0              ; test.c:126:92
	ldr	x2, [sp, #440]
	mov	w3, #3
	.loc	2 0 0                           ; test.c:0:0
	adrp	x4, l_.str.37@PAGE
	add	x4, x4, l_.str.37@PAGEOFF
	.loc	2 126 5                         ; test.c:126:5
	bl	_test_tokenize_string_to_array
	.loc	2 0 0                           ; test.c:0:0
	adrp	x8, l_.str.38@PAGE
	add	x8, x8, l_.str.38@PAGEOFF
	.loc	2 135 17 is_stmt 1              ; test.c:135:17
	str	x8, [sp, #408]
	add	x0, sp, #1, lsl #12             ; =4096
	add	x0, x0, #616
	str	x0, [sp, #48]                   ; 8-byte Folded Spill
	.loc	2 0 0 is_stmt 0                 ; test.c:0:0
	adrp	x1, l___const.main.test_lt_symbol_expected@PAGE
	add	x1, x1, l___const.main.test_lt_symbol_expected@PAGEOFF
	mov	x2, #240
	.loc	2 136 11 is_stmt 1              ; test.c:136:11
	bl	_memcpy
	ldr	x1, [sp, #48]                   ; 8-byte Folded Reload
	mov	x8, #15
	.loc	2 142 25                        ; test.c:142:25
	str	x8, [sp, #440]
	.loc	2 143 35                        ; test.c:143:35
	ldr	x0, [sp, #408]
	.loc	2 143 76 is_stmt 0              ; test.c:143:76
	ldr	x2, [sp, #440]
	mov	w3, #4
	.loc	2 0 0                           ; test.c:0:0
	adrp	x4, l_.str.44@PAGE
	add	x4, x4, l_.str.44@PAGEOFF
	.loc	2 143 5                         ; test.c:143:5
	bl	_test_tokenize_string_to_array
	.loc	2 0 0                           ; test.c:0:0
	adrp	x8, l_.str.45@PAGE
	add	x8, x8, l_.str.45@PAGEOFF
	.loc	2 153 17 is_stmt 1              ; test.c:153:17
	str	x8, [sp, #400]
	add	x0, sp, #1, lsl #12             ; =4096
	add	x0, x0, #328
	str	x0, [sp, #56]                   ; 8-byte Folded Spill
	.loc	2 0 0 is_stmt 0                 ; test.c:0:0
	adrp	x1, l___const.main.test_gt_symbol_expected@PAGE
	add	x1, x1, l___const.main.test_gt_symbol_expected@PAGEOFF
	mov	x2, #288
	str	x2, [sp, #72]                   ; 8-byte Folded Spill
	.loc	2 154 11 is_stmt 1              ; test.c:154:11
	bl	_memcpy
	ldr	x1, [sp, #56]                   ; 8-byte Folded Reload
	mov	x8, #18
	str	x8, [sp, #80]                   ; 8-byte Folded Spill
	.loc	2 161 25                        ; test.c:161:25
	str	x8, [sp, #440]
	.loc	2 162 35                        ; test.c:162:35
	ldr	x0, [sp, #400]
	.loc	2 162 76 is_stmt 0              ; test.c:162:76
	ldr	x2, [sp, #440]
	mov	w3, #5
	.loc	2 0 0                           ; test.c:0:0
	adrp	x4, l_.str.49@PAGE
	add	x4, x4, l_.str.49@PAGEOFF
	.loc	2 162 5                         ; test.c:162:5
	bl	_test_tokenize_string_to_array
	.loc	2 0 0                           ; test.c:0:0
	adrp	x8, l_.str.50@PAGE
	add	x8, x8, l_.str.50@PAGEOFF
	.loc	2 171 17 is_stmt 1              ; test.c:171:17
	str	x8, [sp, #392]
	add	x0, sp, #1, lsl #12             ; =4096
	add	x0, x0, #216
	str	x0, [sp, #64]                   ; 8-byte Folded Spill
	.loc	2 0 0 is_stmt 0                 ; test.c:0:0
	adrp	x1, l___const.main.test_not_expected@PAGE
	add	x1, x1, l___const.main.test_not_expected@PAGEOFF
	mov	x2, #112
	str	x2, [sp, #192]                  ; 8-byte Folded Spill
	.loc	2 172 11 is_stmt 1              ; test.c:172:11
	bl	_memcpy
	ldr	x1, [sp, #64]                   ; 8-byte Folded Reload
	mov	x8, #7
	str	x8, [sp, #200]                  ; 8-byte Folded Spill
	.loc	2 179 25                        ; test.c:179:25
	str	x8, [sp, #440]
	.loc	2 180 35                        ; test.c:180:35
	ldr	x0, [sp, #392]
	.loc	2 180 64 is_stmt 0              ; test.c:180:64
	ldr	x2, [sp, #440]
	mov	w3, #6
	.loc	2 0 0                           ; test.c:0:0
	adrp	x4, l_.str.54@PAGE
	add	x4, x4, l_.str.54@PAGEOFF
	.loc	2 180 5                         ; test.c:180:5
	bl	_test_tokenize_string_to_array
	ldr	x2, [sp, #72]                   ; 8-byte Folded Reload
	.loc	2 0 0                           ; test.c:0:0
	adrp	x8, l_.str.55@PAGE
	add	x8, x8, l_.str.55@PAGEOFF
	.loc	2 189 17 is_stmt 1              ; test.c:189:17
	str	x8, [sp, #384]
	add	x0, sp, #4024
	str	x0, [sp, #88]                   ; 8-byte Folded Spill
	.loc	2 0 0 is_stmt 0                 ; test.c:0:0
	adrp	x1, l___const.main.test_and_or_exepected@PAGE
	add	x1, x1, l___const.main.test_and_or_exepected@PAGEOFF
	.loc	2 190 11 is_stmt 1              ; test.c:190:11
	bl	_memcpy
	ldr	x8, [sp, #80]                   ; 8-byte Folded Reload
	ldr	x1, [sp, #88]                   ; 8-byte Folded Reload
	.loc	2 196 25                        ; test.c:196:25
	str	x8, [sp, #440]
	.loc	2 197 35                        ; test.c:197:35
	ldr	x0, [sp, #384]
	.loc	2 197 71 is_stmt 0              ; test.c:197:71
	ldr	x2, [sp, #440]
	mov	w3, #7
	.loc	2 0 0                           ; test.c:0:0
	adrp	x4, l_.str.60@PAGE
	add	x4, x4, l_.str.60@PAGEOFF
	.loc	2 197 5                         ; test.c:197:5
	bl	_test_tokenize_string_to_array
	ldr	x2, [sp, #96]                   ; 8-byte Folded Reload
	.loc	2 0 0                           ; test.c:0:0
	adrp	x8, l_.str.61@PAGE
	add	x8, x8, l_.str.61@PAGEOFF
	.loc	2 206 17 is_stmt 1              ; test.c:206:17
	str	x8, [sp, #376]
	add	x0, sp, #3896
	str	x0, [sp, #112]                  ; 8-byte Folded Spill
	.loc	2 0 0 is_stmt 0                 ; test.c:0:0
	adrp	x1, l___const.main.test_true_false_expected@PAGE
	add	x1, x1, l___const.main.test_true_false_expected@PAGEOFF
	.loc	2 207 11 is_stmt 1              ; test.c:207:11
	bl	_memcpy
	ldr	x8, [sp, #104]                  ; 8-byte Folded Reload
	ldr	x1, [sp, #112]                  ; 8-byte Folded Reload
	.loc	2 212 25                        ; test.c:212:25
	str	x8, [sp, #440]
	.loc	2 213 35                        ; test.c:213:35
	ldr	x0, [sp, #376]
	.loc	2 213 78 is_stmt 0              ; test.c:213:78
	ldr	x2, [sp, #440]
	mov	w3, #8
	.loc	2 0 0                           ; test.c:0:0
	adrp	x4, l_.str.64@PAGE
	add	x4, x4, l_.str.64@PAGEOFF
	.loc	2 213 5                         ; test.c:213:5
	bl	_test_tokenize_string_to_array
	.loc	2 0 0                           ; test.c:0:0
	adrp	x8, l_.str.65@PAGE
	add	x8, x8, l_.str.65@PAGEOFF
	.loc	2 222 17 is_stmt 1              ; test.c:222:17
	str	x8, [sp, #368]
	add	x0, sp, #3736
	str	x0, [sp, #120]                  ; 8-byte Folded Spill
	.loc	2 0 0 is_stmt 0                 ; test.c:0:0
	adrp	x1, l___const.main.test_bad_names_expected@PAGE
	add	x1, x1, l___const.main.test_bad_names_expected@PAGEOFF
	mov	x2, #160
	.loc	2 223 11 is_stmt 1              ; test.c:223:11
	bl	_memcpy
	ldr	x1, [sp, #120]                  ; 8-byte Folded Reload
	mov	x8, #10
	.loc	2 228 25                        ; test.c:228:25
	str	x8, [sp, #440]
	.loc	2 229 35                        ; test.c:229:35
	ldr	x0, [sp, #368]
	.loc	2 229 76 is_stmt 0              ; test.c:229:76
	ldr	x2, [sp, #440]
	mov	w3, #9
	.loc	2 0 0                           ; test.c:0:0
	adrp	x4, l_.str.70@PAGE
	add	x4, x4, l_.str.70@PAGEOFF
	.loc	2 229 5                         ; test.c:229:5
	bl	_test_tokenize_string_to_array
	.loc	2 0 0                           ; test.c:0:0
	adrp	x8, l_.str.71@PAGE
	add	x8, x8, l_.str.71@PAGEOFF
	.loc	2 238 17 is_stmt 1              ; test.c:238:17
	str	x8, [sp, #360]
	add	x0, sp, #3560
	str	x0, [sp, #128]                  ; 8-byte Folded Spill
	.loc	2 0 0 is_stmt 0                 ; test.c:0:0
	adrp	x1, l___const.main.test_line_column_number_expected@PAGE
	add	x1, x1, l___const.main.test_line_column_number_expected@PAGEOFF
	mov	x2, #176
	.loc	2 239 11 is_stmt 1              ; test.c:239:11
	bl	_memcpy
	.loc	2 0 0 is_stmt 0                 ; test.c:0:0
	adrp	x0, l_.str.74@PAGE
	add	x0, x0, l_.str.74@PAGEOFF
	.loc	2 245 5 is_stmt 1               ; test.c:245:5
	bl	_printf
	ldr	x1, [sp, #128]                  ; 8-byte Folded Reload
	mov	x8, #11
	.loc	2 246 25                        ; test.c:246:25
	str	x8, [sp, #440]
	.loc	2 247 35                        ; test.c:247:35
	ldr	x0, [sp, #360]
	.loc	2 247 94 is_stmt 0              ; test.c:247:94
	ldr	x2, [sp, #440]
	mov	w3, #10
	.loc	2 0 0                           ; test.c:0:0
	adrp	x4, l_.str.75@PAGE
	add	x4, x4, l_.str.75@PAGEOFF
	.loc	2 247 5                         ; test.c:247:5
	bl	_test_tokenize_string_to_array
	.loc	2 0 0                           ; test.c:0:0
	adrp	x8, l_.str.76@PAGE
	add	x8, x8, l_.str.76@PAGEOFF
	.loc	2 256 17 is_stmt 1              ; test.c:256:17
	str	x8, [sp, #352]
	add	x0, sp, #2952
	str	x0, [sp, #136]                  ; 8-byte Folded Spill
	.loc	2 0 0 is_stmt 0                 ; test.c:0:0
	adrp	x1, l___const.main.test_keywords_again_expected@PAGE
	add	x1, x1, l___const.main.test_keywords_again_expected@PAGEOFF
	mov	x2, #608
	.loc	2 257 11 is_stmt 1              ; test.c:257:11
	bl	_memcpy
	ldr	x1, [sp, #136]                  ; 8-byte Folded Reload
	mov	x8, #38
	.loc	2 267 25                        ; test.c:267:25
	str	x8, [sp, #440]
	.loc	2 268 35                        ; test.c:268:35
	ldr	x0, [sp, #352]
	.loc	2 268 86 is_stmt 0              ; test.c:268:86
	ldr	x2, [sp, #440]
	mov	w3, #11
	.loc	2 0 0                           ; test.c:0:0
	adrp	x4, l_.str.86@PAGE
	add	x4, x4, l_.str.86@PAGEOFF
	.loc	2 268 5                         ; test.c:268:5
	bl	_test_tokenize_string_to_array
	ldr	x2, [sp, #224]                  ; 8-byte Folded Reload
	.loc	2 0 0                           ; test.c:0:0
	adrp	x8, l_.str.87@PAGE
	add	x8, x8, l_.str.87@PAGEOFF
	.loc	2 277 17 is_stmt 1              ; test.c:277:17
	str	x8, [sp, #344]
	add	x0, sp, #2888
	str	x0, [sp, #144]                  ; 8-byte Folded Spill
	.loc	2 0 0 is_stmt 0                 ; test.c:0:0
	adrp	x1, l___const.main.test_string_recognition_expected@PAGE
	add	x1, x1, l___const.main.test_string_recognition_expected@PAGEOFF
	.loc	2 278 11 is_stmt 1              ; test.c:278:11
	bl	_memcpy
	ldr	x1, [sp, #144]                  ; 8-byte Folded Reload
	ldr	x8, [sp, #232]                  ; 8-byte Folded Reload
	.loc	2 282 25                        ; test.c:282:25
	str	x8, [sp, #440]
	.loc	2 283 35                        ; test.c:283:35
	ldr	x0, [sp, #344]
	.loc	2 283 94 is_stmt 0              ; test.c:283:94
	ldr	x2, [sp, #440]
	mov	w3, #12
	.loc	2 0 0                           ; test.c:0:0
	adrp	x4, l_.str.90@PAGE
	add	x4, x4, l_.str.90@PAGEOFF
	.loc	2 283 5                         ; test.c:283:5
	bl	_test_tokenize_string_to_array
	ldr	x2, [sp, #152]                  ; 8-byte Folded Reload
	.loc	2 0 0                           ; test.c:0:0
	adrp	x8, l_.str.91@PAGE
	add	x8, x8, l_.str.91@PAGEOFF
	.loc	2 292 17 is_stmt 1              ; test.c:292:17
	str	x8, [sp, #336]
	add	x0, sp, #2664
	str	x0, [sp, #168]                  ; 8-byte Folded Spill
	.loc	2 0 0 is_stmt 0                 ; test.c:0:0
	adrp	x1, l___const.main.test_numbers_and_strings_expected@PAGE
	add	x1, x1, l___const.main.test_numbers_and_strings_expected@PAGEOFF
	.loc	2 293 11 is_stmt 1              ; test.c:293:11
	bl	_memcpy
	ldr	x8, [sp, #160]                  ; 8-byte Folded Reload
	ldr	x1, [sp, #168]                  ; 8-byte Folded Reload
	.loc	2 300 25                        ; test.c:300:25
	str	x8, [sp, #440]
	.loc	2 301 35                        ; test.c:301:35
	ldr	x0, [sp, #336]
	.loc	2 301 96 is_stmt 0              ; test.c:301:96
	ldr	x2, [sp, #440]
	mov	w3, #13
	.loc	2 0 0                           ; test.c:0:0
	adrp	x4, l_.str.95@PAGE
	add	x4, x4, l_.str.95@PAGEOFF
	.loc	2 301 5                         ; test.c:301:5
	bl	_test_tokenize_string_to_array
	.loc	2 0 0                           ; test.c:0:0
	adrp	x8, l_.str.96@PAGE
	add	x8, x8, l_.str.96@PAGEOFF
	.loc	2 310 17 is_stmt 1              ; test.c:310:17
	str	x8, [sp, #328]
	add	x0, sp, #2568
	str	x0, [sp, #176]                  ; 8-byte Folded Spill
	.loc	2 0 0 is_stmt 0                 ; test.c:0:0
	adrp	x1, l___const.main.test_lbrace_rbrace_expected@PAGE
	add	x1, x1, l___const.main.test_lbrace_rbrace_expected@PAGEOFF
	mov	x2, #96
	.loc	2 311 11 is_stmt 1              ; test.c:311:11
	bl	_memcpy
	ldr	x1, [sp, #176]                  ; 8-byte Folded Reload
	mov	x8, #6
	.loc	2 316 25                        ; test.c:316:25
	str	x8, [sp, #440]
	.loc	2 317 35                        ; test.c:317:35
	ldr	x0, [sp, #328]
	.loc	2 317 84 is_stmt 0              ; test.c:317:84
	ldr	x2, [sp, #440]
	mov	w3, #14
	.loc	2 0 0                           ; test.c:0:0
	adrp	x4, l_.str.102@PAGE
	add	x4, x4, l_.str.102@PAGEOFF
	.loc	2 317 5                         ; test.c:317:5
	bl	_test_tokenize_string_to_array
	ldr	x2, [sp, #192]                  ; 8-byte Folded Reload
	.loc	2 0 0                           ; test.c:0:0
	adrp	x8, l_.str.103@PAGE
	add	x8, x8, l_.str.103@PAGEOFF
	.loc	2 326 17 is_stmt 1              ; test.c:326:17
	str	x8, [sp, #320]
	add	x0, sp, #2456
	str	x0, [sp, #184]                  ; 8-byte Folded Spill
	.loc	2 0 0 is_stmt 0                 ; test.c:0:0
	adrp	x1, l___const.main.test_dollar_expected@PAGE
	add	x1, x1, l___const.main.test_dollar_expected@PAGEOFF
	.loc	2 327 11 is_stmt 1              ; test.c:327:11
	bl	_memcpy
	ldr	x1, [sp, #184]                  ; 8-byte Folded Reload
	ldr	x8, [sp, #200]                  ; 8-byte Folded Reload
	.loc	2 333 25                        ; test.c:333:25
	str	x8, [sp, #440]
	.loc	2 334 35                        ; test.c:334:35
	ldr	x0, [sp, #320]
	.loc	2 334 70 is_stmt 0              ; test.c:334:70
	ldr	x2, [sp, #440]
	mov	w3, #15
	.loc	2 0 0                           ; test.c:0:0
	adrp	x4, l_.str.105@PAGE
	add	x4, x4, l_.str.105@PAGEOFF
	.loc	2 334 5                         ; test.c:334:5
	bl	_test_tokenize_string_to_array
	ldr	x2, [sp, #192]                  ; 8-byte Folded Reload
	.loc	2 0 0                           ; test.c:0:0
	adrp	x8, l_.str.106@PAGE
	add	x8, x8, l_.str.106@PAGEOFF
	.loc	2 343 17 is_stmt 1              ; test.c:343:17
	str	x8, [sp, #312]
	add	x0, sp, #2344
	str	x0, [sp, #208]                  ; 8-byte Folded Spill
	.loc	2 0 0 is_stmt 0                 ; test.c:0:0
	adrp	x1, l___const.main.test_lsquare_rsquare_expected@PAGE
	add	x1, x1, l___const.main.test_lsquare_rsquare_expected@PAGEOFF
	.loc	2 344 11 is_stmt 1              ; test.c:344:11
	bl	_memcpy
	ldr	x8, [sp, #200]                  ; 8-byte Folded Reload
	ldr	x1, [sp, #208]                  ; 8-byte Folded Reload
	.loc	2 350 25                        ; test.c:350:25
	str	x8, [sp, #440]
	.loc	2 351 35                        ; test.c:351:35
	ldr	x0, [sp, #312]
	.loc	2 351 87 is_stmt 0              ; test.c:351:87
	ldr	x2, [sp, #440]
	mov	w3, #16
	.loc	2 0 0                           ; test.c:0:0
	adrp	x4, l_.str.109@PAGE
	add	x4, x4, l_.str.109@PAGEOFF
	.loc	2 351 5                         ; test.c:351:5
	bl	_test_tokenize_string_to_array
	.loc	2 0 0                           ; test.c:0:0
	adrp	x8, l_.str.110@PAGE
	add	x8, x8, l_.str.110@PAGEOFF
	.loc	2 360 17 is_stmt 1              ; test.c:360:17
	str	x8, [sp, #304]
	add	x0, sp, #1640
	str	x0, [sp, #216]                  ; 8-byte Folded Spill
	.loc	2 0 0 is_stmt 0                 ; test.c:0:0
	adrp	x1, l___const.main.test_valid_program_expected@PAGE
	add	x1, x1, l___const.main.test_valid_program_expected@PAGEOFF
	mov	x2, #704
	.loc	2 362 11 is_stmt 1              ; test.c:362:11
	bl	_memcpy
	ldr	x1, [sp, #216]                  ; 8-byte Folded Reload
	mov	x8, #44
	.loc	2 374 25                        ; test.c:374:25
	str	x8, [sp, #440]
	.loc	2 375 35                        ; test.c:375:35
	ldr	x0, [sp, #304]
	.loc	2 375 84 is_stmt 0              ; test.c:375:84
	ldr	x2, [sp, #440]
	mov	w3, #17
	.loc	2 0 0                           ; test.c:0:0
	adrp	x4, l_.str.114@PAGE
	add	x4, x4, l_.str.114@PAGEOFF
	.loc	2 375 5                         ; test.c:375:5
	bl	_test_tokenize_string_to_array
	ldr	x2, [sp, #224]                  ; 8-byte Folded Reload
	.loc	2 0 0                           ; test.c:0:0
	adrp	x8, l_.str.115@PAGE
	add	x8, x8, l_.str.115@PAGEOFF
	.loc	2 384 17 is_stmt 1              ; test.c:384:17
	str	x8, [sp, #296]
	add	x0, sp, #1576
	str	x0, [sp, #240]                  ; 8-byte Folded Spill
	.loc	2 0 0 is_stmt 0                 ; test.c:0:0
	adrp	x1, l___const.main.test_long_string_expected@PAGE
	add	x1, x1, l___const.main.test_long_string_expected@PAGEOFF
	.loc	2 430 11 is_stmt 1              ; test.c:430:11
	bl	_memcpy
	ldr	x8, [sp, #232]                  ; 8-byte Folded Reload
	ldr	x1, [sp, #240]                  ; 8-byte Folded Reload
	.loc	2 481 25                        ; test.c:481:25
	str	x8, [sp, #440]
	.loc	2 482 35                        ; test.c:482:35
	ldr	x0, [sp, #296]
	.loc	2 482 80 is_stmt 0              ; test.c:482:80
	ldr	x2, [sp, #440]
	mov	w3, #18
	.loc	2 0 0                           ; test.c:0:0
	adrp	x4, l_.str.118@PAGE
	add	x4, x4, l_.str.118@PAGEOFF
	.loc	2 482 5                         ; test.c:482:5
	bl	_test_tokenize_string_to_array
	.loc	2 0 0                           ; test.c:0:0
	adrp	x8, l_.str.119@PAGE
	add	x8, x8, l_.str.119@PAGEOFF
	.loc	2 489 17 is_stmt 1              ; test.c:489:17
	str	x8, [sp, #288]
	add	x0, sp, #1384
	str	x0, [sp, #248]                  ; 8-byte Folded Spill
	.loc	2 0 0 is_stmt 0                 ; test.c:0:0
	adrp	x1, l___const.main.test_string_variable_assign_expected@PAGE
	add	x1, x1, l___const.main.test_string_variable_assign_expected@PAGEOFF
	mov	x2, #192
	.loc	2 493 11 is_stmt 1              ; test.c:493:11
	bl	_memcpy
	ldr	x1, [sp, #248]                  ; 8-byte Folded Reload
	mov	x8, #12
	.loc	2 499 25                        ; test.c:499:25
	str	x8, [sp, #440]
	.loc	2 500 35                        ; test.c:500:35
	ldr	x0, [sp, #288]
	.loc	2 500 102 is_stmt 0             ; test.c:500:102
	ldr	x2, [sp, #440]
	mov	w3, #19
	.loc	2 0 0                           ; test.c:0:0
	adrp	x4, l_.str.124@PAGE
	add	x4, x4, l_.str.124@PAGEOFF
	.loc	2 500 5                         ; test.c:500:5
	bl	_test_tokenize_string_to_array
	.loc	2 0 0                           ; test.c:0:0
	adrp	x8, l_.str.125@PAGE
	add	x8, x8, l_.str.125@PAGEOFF
	.loc	2 509 17 is_stmt 1              ; test.c:509:17
	str	x8, [sp, #280]
	add	x0, sp, #888
	str	x0, [sp, #256]                  ; 8-byte Folded Spill
	.loc	2 0 0 is_stmt 0                 ; test.c:0:0
	adrp	x1, l___const.main.test_function_declaration_expected@PAGE
	add	x1, x1, l___const.main.test_function_declaration_expected@PAGEOFF
	mov	x2, #496
	.loc	2 515 11 is_stmt 1              ; test.c:515:11
	bl	_memcpy
	ldr	x1, [sp, #256]                  ; 8-byte Folded Reload
	mov	x8, #31
	.loc	2 526 25                        ; test.c:526:25
	str	x8, [sp, #440]
	.loc	2 527 35                        ; test.c:527:35
	ldr	x0, [sp, #280]
	.loc	2 527 98 is_stmt 0              ; test.c:527:98
	ldr	x2, [sp, #440]
	mov	w3, #20
	.loc	2 0 0                           ; test.c:0:0
	adrp	x4, l_.str.131@PAGE
	add	x4, x4, l_.str.131@PAGEOFF
	.loc	2 527 5                         ; test.c:527:5
	bl	_test_tokenize_string_to_array
	.loc	2 0 0                           ; test.c:0:0
	adrp	x8, l_.str.132@PAGE
	add	x8, x8, l_.str.132@PAGEOFF
	.loc	2 535 17 is_stmt 1              ; test.c:535:17
	str	x8, [sp, #272]
	add	x0, sp, #472
	str	x0, [sp, #264]                  ; 8-byte Folded Spill
	.loc	2 0 0 is_stmt 0                 ; test.c:0:0
	adrp	x1, l___const.main.test_array_recognition_expected@PAGE
	add	x1, x1, l___const.main.test_array_recognition_expected@PAGEOFF
	mov	x2, #416
	.loc	2 539 11 is_stmt 1              ; test.c:539:11
	bl	_memcpy
	ldr	x1, [sp, #264]                  ; 8-byte Folded Reload
	mov	x8, #26
	.loc	2 548 25                        ; test.c:548:25
	str	x8, [sp, #440]
	.loc	2 549 35                        ; test.c:549:35
	ldr	x0, [sp, #272]
	.loc	2 549 92 is_stmt 0              ; test.c:549:92
	ldr	x2, [sp, #440]
	mov	w3, #21
	.loc	2 0 0                           ; test.c:0:0
	adrp	x4, l_.str.142@PAGE
	add	x4, x4, l_.str.142@PAGEOFF
	.loc	2 549 5                         ; test.c:549:5
	bl	_test_tokenize_string_to_array
	.loc	2 0 0                           ; test.c:0:0
	adrp	x0, l_.str.143@PAGE
	add	x0, x0, l_.str.143@PAGEOFF
	.loc	2 553 5 is_stmt 1               ; test.c:553:5
	bl	_printf
	.loc	2 554 5                         ; test.c:554:5
	ldur	x9, [x29, #-24]
	adrp	x8, ___stack_chk_guard@GOTPAGE
	ldr	x8, [x8, ___stack_chk_guard@GOTPAGEOFF]
	ldr	x8, [x8]
	subs	x8, x8, x9
	cset	w8, eq
	tbnz	w8, #0, LBB2_2
	b	LBB2_1
LBB2_1:
	bl	___stack_chk_fail
LBB2_2:
	.loc	2 0 5 is_stmt 0                 ; test.c:0:5
	mov	w0, #0
	.loc	2 554 5                         ; test.c:554:5
	add	sp, sp, #1, lsl #12             ; =4096
	add	sp, sp, #1808
	ldp	x29, x30, [sp, #16]             ; 16-byte Folded Reload
	ldp	x28, x27, [sp], #32             ; 16-byte Folded Reload
	ret
Ltmp22:
Lfunc_end2:
	.cfi_endproc
                                        ; -- End function
	.section	__TEXT,__cstring,cstring_literals
l_.str:                                 ; @.str
	.asciz	"Test string_: %s\n"

l_.str.1:                               ; @.str.1
	.asciz	"Fail. Found wrong number of tokens than expected.\n"

l_.str.2:                               ; @.str.2
	.asciz	"expected type / lexeme: %s / %s vs. actual type / lexeme: %s / %s\n"

l_.str.3:                               ; @.str.3
	.asciz	"Fail at: %s. Expected: %s\n"

l_.str.4:                               ; @.str.4
	.asciz	"PASS test %d: %s\n\n"

l_.str.5:                               ; @.str.5
	.asciz	"FAIL test %d: %s\n\n"

l_.str.6:                               ; @.str.6
	.asciz	"x + 9 = 24; x++;"

l_.str.7:                               ; @.str.7
	.asciz	"x"

l_.str.8:                               ; @.str.8
	.asciz	"+"

l_.str.9:                               ; @.str.9
	.asciz	"9"

l_.str.10:                              ; @.str.10
	.asciz	"24"

	.section	__DATA,__const
	.p2align	3                               ; @__const.main.incorrect_tokens_expected
l___const.main.incorrect_tokens_expected:
	.long	29                              ; 0x1d
	.space	4
	.quad	l_.str.7
	.long	11                              ; 0xb
	.space	4
	.quad	l_.str.8
	.long	28                              ; 0x1c
	.space	4
	.quad	l_.str.9
	.long	28                              ; 0x1c
	.space	4
	.quad	l_.str.10

	.section	__TEXT,__cstring,cstring_literals
l_.str.11:                              ; @.str.11
	.asciz	"should always fail"

l_.str.12:                              ; @.str.12
	.asciz	"j = 0; j++; result_1 = 66+(55 - 7.9.9) / (Test_Value * 11.71); result_1++; j--; 6 % 3;"

l_.str.13:                              ; @.str.13
	.asciz	"j"

l_.str.14:                              ; @.str.14
	.asciz	"="

l_.str.15:                              ; @.str.15
	.asciz	"0"

l_.str.16:                              ; @.str.16
	.asciz	";"

l_.str.17:                              ; @.str.17
	.asciz	"++"

l_.str.18:                              ; @.str.18
	.asciz	"result_1"

l_.str.19:                              ; @.str.19
	.asciz	"66"

l_.str.20:                              ; @.str.20
	.asciz	"("

l_.str.21:                              ; @.str.21
	.asciz	"55"

l_.str.22:                              ; @.str.22
	.asciz	"-"

	.section	__DATA,__const
	.p2align	3                               ; @__const.main.test_too_many_decimals_expected
l___const.main.test_too_many_decimals_expected:
	.long	29                              ; 0x1d
	.space	4
	.quad	l_.str.13
	.long	30                              ; 0x1e
	.space	4
	.quad	l_.str.14
	.long	28                              ; 0x1c
	.space	4
	.quad	l_.str.15
	.long	0                               ; 0x0
	.space	4
	.quad	l_.str.16
	.long	29                              ; 0x1d
	.space	4
	.quad	l_.str.13
	.long	3                               ; 0x3
	.space	4
	.quad	l_.str.17
	.long	0                               ; 0x0
	.space	4
	.quad	l_.str.16
	.long	29                              ; 0x1d
	.space	4
	.quad	l_.str.18
	.long	30                              ; 0x1e
	.space	4
	.quad	l_.str.14
	.long	28                              ; 0x1c
	.space	4
	.quad	l_.str.19
	.long	11                              ; 0xb
	.space	4
	.quad	l_.str.8
	.long	1                               ; 0x1
	.space	4
	.quad	l_.str.20
	.long	28                              ; 0x1c
	.space	4
	.quad	l_.str.21
	.long	5                               ; 0x5
	.space	4
	.quad	l_.str.22

	.section	__TEXT,__cstring,cstring_literals
l_.str.23:                              ; @.str.23
	.asciz	"too many decimals"

l_.str.24:                              ; @.str.24
	.asciz	"j = 0; j++; result_1 = 66+(55 - 7.99) / (Test_Value * 11.71); result_1++; j--; 6 % 3;"

l_.str.25:                              ; @.str.25
	.asciz	"7.99"

l_.str.26:                              ; @.str.26
	.asciz	")"

l_.str.27:                              ; @.str.27
	.asciz	"/"

l_.str.28:                              ; @.str.28
	.asciz	"Test_Value"

l_.str.29:                              ; @.str.29
	.asciz	"*"

l_.str.30:                              ; @.str.30
	.asciz	"11.71"

l_.str.31:                              ; @.str.31
	.asciz	"--"

l_.str.32:                              ; @.str.32
	.asciz	"6"

l_.str.33:                              ; @.str.33
	.asciz	"%"

l_.str.34:                              ; @.str.34
	.asciz	"3"

	.section	__DATA,__const
	.p2align	3                               ; @__const.main.test_valid_decimals_expected
l___const.main.test_valid_decimals_expected:
	.long	29                              ; 0x1d
	.space	4
	.quad	l_.str.13
	.long	30                              ; 0x1e
	.space	4
	.quad	l_.str.14
	.long	28                              ; 0x1c
	.space	4
	.quad	l_.str.15
	.long	0                               ; 0x0
	.space	4
	.quad	l_.str.16
	.long	29                              ; 0x1d
	.space	4
	.quad	l_.str.13
	.long	3                               ; 0x3
	.space	4
	.quad	l_.str.17
	.long	0                               ; 0x0
	.space	4
	.quad	l_.str.16
	.long	29                              ; 0x1d
	.space	4
	.quad	l_.str.18
	.long	30                              ; 0x1e
	.space	4
	.quad	l_.str.14
	.long	28                              ; 0x1c
	.space	4
	.quad	l_.str.19
	.long	11                              ; 0xb
	.space	4
	.quad	l_.str.8
	.long	1                               ; 0x1
	.space	4
	.quad	l_.str.20
	.long	28                              ; 0x1c
	.space	4
	.quad	l_.str.21
	.long	5                               ; 0x5
	.space	4
	.quad	l_.str.22
	.long	28                              ; 0x1c
	.space	4
	.quad	l_.str.25
	.long	2                               ; 0x2
	.space	4
	.quad	l_.str.26
	.long	9                               ; 0x9
	.space	4
	.quad	l_.str.27
	.long	1                               ; 0x1
	.space	4
	.quad	l_.str.20
	.long	29                              ; 0x1d
	.space	4
	.quad	l_.str.28
	.long	8                               ; 0x8
	.space	4
	.quad	l_.str.29
	.long	28                              ; 0x1c
	.space	4
	.quad	l_.str.30
	.long	2                               ; 0x2
	.space	4
	.quad	l_.str.26
	.long	0                               ; 0x0
	.space	4
	.quad	l_.str.16
	.long	29                              ; 0x1d
	.space	4
	.quad	l_.str.18
	.long	3                               ; 0x3
	.space	4
	.quad	l_.str.17
	.long	0                               ; 0x0
	.space	4
	.quad	l_.str.16
	.long	29                              ; 0x1d
	.space	4
	.quad	l_.str.13
	.long	4                               ; 0x4
	.space	4
	.quad	l_.str.31
	.long	0                               ; 0x0
	.space	4
	.quad	l_.str.16
	.long	28                              ; 0x1c
	.space	4
	.quad	l_.str.32
	.long	10                              ; 0xa
	.space	4
	.quad	l_.str.33
	.long	28                              ; 0x1c
	.space	4
	.quad	l_.str.34
	.long	0                               ; 0x0
	.space	4
	.quad	l_.str.16

	.section	__TEXT,__cstring,cstring_literals
l_.str.35:                              ; @.str.35
	.asciz	"valid decimals"

l_.str.36:                              ; @.str.36
	.asciz	"j = 0; j+++;"

	.section	__DATA,__const
	.p2align	3                               ; @__const.main.test_invalid_increment_expected
l___const.main.test_invalid_increment_expected:
	.long	29                              ; 0x1d
	.space	4
	.quad	l_.str.13
	.long	30                              ; 0x1e
	.space	4
	.quad	l_.str.14
	.long	28                              ; 0x1c
	.space	4
	.quad	l_.str.15
	.long	0                               ; 0x0
	.space	4
	.quad	l_.str.16
	.long	29                              ; 0x1d
	.space	4
	.quad	l_.str.13
	.long	3                               ; 0x3
	.space	4
	.quad	l_.str.17
	.long	11                              ; 0xb
	.space	4
	.quad	l_.str.8
	.long	0                               ; 0x0
	.space	4
	.quad	l_.str.16

	.section	__TEXT,__cstring,cstring_literals
l_.str.37:                              ; @.str.37
	.asciz	"invalid increment"

l_.str.38:                              ; @.str.38
	.asciz	"k=0;k<8;k<=0;k<<;"

l_.str.39:                              ; @.str.39
	.asciz	"k"

l_.str.40:                              ; @.str.40
	.asciz	"<"

l_.str.41:                              ; @.str.41
	.asciz	"8"

l_.str.42:                              ; @.str.42
	.asciz	"<="

l_.str.43:                              ; @.str.43
	.asciz	"<<"

	.section	__DATA,__const
	.p2align	3                               ; @__const.main.test_lt_symbol_expected
l___const.main.test_lt_symbol_expected:
	.long	29                              ; 0x1d
	.space	4
	.quad	l_.str.39
	.long	30                              ; 0x1e
	.space	4
	.quad	l_.str.14
	.long	28                              ; 0x1c
	.space	4
	.quad	l_.str.15
	.long	0                               ; 0x0
	.space	4
	.quad	l_.str.16
	.long	29                              ; 0x1d
	.space	4
	.quad	l_.str.39
	.long	20                              ; 0x14
	.space	4
	.quad	l_.str.40
	.long	28                              ; 0x1c
	.space	4
	.quad	l_.str.41
	.long	0                               ; 0x0
	.space	4
	.quad	l_.str.16
	.long	29                              ; 0x1d
	.space	4
	.quad	l_.str.39
	.long	24                              ; 0x18
	.space	4
	.quad	l_.str.42
	.long	28                              ; 0x1c
	.space	4
	.quad	l_.str.15
	.long	0                               ; 0x0
	.space	4
	.quad	l_.str.16
	.long	29                              ; 0x1d
	.space	4
	.quad	l_.str.39
	.long	12                              ; 0xc
	.space	4
	.quad	l_.str.43
	.long	0                               ; 0x0
	.space	4
	.quad	l_.str.16

	.section	__TEXT,__cstring,cstring_literals
l_.str.44:                              ; @.str.44
	.asciz	"lt_symbol"

l_.str.45:                              ; @.str.45
	.asciz	"k = 0; k>8; k>=0; k>>;<>;"

l_.str.46:                              ; @.str.46
	.asciz	">"

l_.str.47:                              ; @.str.47
	.asciz	">="

l_.str.48:                              ; @.str.48
	.asciz	">>"

	.section	__DATA,__const
	.p2align	3                               ; @__const.main.test_gt_symbol_expected
l___const.main.test_gt_symbol_expected:
	.long	29                              ; 0x1d
	.space	4
	.quad	l_.str.39
	.long	30                              ; 0x1e
	.space	4
	.quad	l_.str.14
	.long	28                              ; 0x1c
	.space	4
	.quad	l_.str.15
	.long	0                               ; 0x0
	.space	4
	.quad	l_.str.16
	.long	29                              ; 0x1d
	.space	4
	.quad	l_.str.39
	.long	21                              ; 0x15
	.space	4
	.quad	l_.str.46
	.long	28                              ; 0x1c
	.space	4
	.quad	l_.str.41
	.long	0                               ; 0x0
	.space	4
	.quad	l_.str.16
	.long	29                              ; 0x1d
	.space	4
	.quad	l_.str.39
	.long	25                              ; 0x19
	.space	4
	.quad	l_.str.47
	.long	28                              ; 0x1c
	.space	4
	.quad	l_.str.15
	.long	0                               ; 0x0
	.space	4
	.quad	l_.str.16
	.long	29                              ; 0x1d
	.space	4
	.quad	l_.str.39
	.long	13                              ; 0xd
	.space	4
	.quad	l_.str.48
	.long	0                               ; 0x0
	.space	4
	.quad	l_.str.16
	.long	20                              ; 0x14
	.space	4
	.quad	l_.str.40
	.long	21                              ; 0x15
	.space	4
	.quad	l_.str.46
	.long	0                               ; 0x0
	.space	4
	.quad	l_.str.16

	.section	__TEXT,__cstring,cstring_literals
l_.str.49:                              ; @.str.49
	.asciz	"gt_symbol"

l_.str.50:                              ; @.str.50
	.asciz	"!k; k != 7;"

l_.str.51:                              ; @.str.51
	.asciz	"!"

l_.str.52:                              ; @.str.52
	.asciz	"!="

l_.str.53:                              ; @.str.53
	.asciz	"7"

	.section	__DATA,__const
	.p2align	3                               ; @__const.main.test_not_expected
l___const.main.test_not_expected:
	.long	17                              ; 0x11
	.space	4
	.quad	l_.str.51
	.long	29                              ; 0x1d
	.space	4
	.quad	l_.str.39
	.long	0                               ; 0x0
	.space	4
	.quad	l_.str.16
	.long	29                              ; 0x1d
	.space	4
	.quad	l_.str.39
	.long	23                              ; 0x17
	.space	4
	.quad	l_.str.52
	.long	28                              ; 0x1c
	.space	4
	.quad	l_.str.53
	.long	0                               ; 0x0
	.space	4
	.quad	l_.str.16

	.section	__TEXT,__cstring,cstring_literals
l_.str.54:                              ; @.str.54
	.asciz	"not operator"

l_.str.55:                              ; @.str.55
	.asciz	"(k && j) || !(k||(g && !f));"

l_.str.56:                              ; @.str.56
	.asciz	"&&"

l_.str.57:                              ; @.str.57
	.asciz	"||"

l_.str.58:                              ; @.str.58
	.asciz	"g"

l_.str.59:                              ; @.str.59
	.asciz	"f"

	.section	__DATA,__const
	.p2align	3                               ; @__const.main.test_and_or_exepected
l___const.main.test_and_or_exepected:
	.long	1                               ; 0x1
	.space	4
	.quad	l_.str.20
	.long	29                              ; 0x1d
	.space	4
	.quad	l_.str.39
	.long	18                              ; 0x12
	.space	4
	.quad	l_.str.56
	.long	29                              ; 0x1d
	.space	4
	.quad	l_.str.13
	.long	2                               ; 0x2
	.space	4
	.quad	l_.str.26
	.long	19                              ; 0x13
	.space	4
	.quad	l_.str.57
	.long	17                              ; 0x11
	.space	4
	.quad	l_.str.51
	.long	1                               ; 0x1
	.space	4
	.quad	l_.str.20
	.long	29                              ; 0x1d
	.space	4
	.quad	l_.str.39
	.long	19                              ; 0x13
	.space	4
	.quad	l_.str.57
	.long	1                               ; 0x1
	.space	4
	.quad	l_.str.20
	.long	29                              ; 0x1d
	.space	4
	.quad	l_.str.58
	.long	18                              ; 0x12
	.space	4
	.quad	l_.str.56
	.long	17                              ; 0x11
	.space	4
	.quad	l_.str.51
	.long	29                              ; 0x1d
	.space	4
	.quad	l_.str.59
	.long	2                               ; 0x2
	.space	4
	.quad	l_.str.26
	.long	2                               ; 0x2
	.space	4
	.quad	l_.str.26
	.long	0                               ; 0x0
	.space	4
	.quad	l_.str.16

	.section	__TEXT,__cstring,cstring_literals
l_.str.60:                              ; @.str.60
	.asciz	"and / or"

l_.str.61:                              ; @.str.61
	.asciz	"k = True; j = False;"

l_.str.62:                              ; @.str.62
	.asciz	"True"

l_.str.63:                              ; @.str.63
	.asciz	"False"

	.section	__DATA,__const
	.p2align	3                               ; @__const.main.test_true_false_expected
l___const.main.test_true_false_expected:
	.long	29                              ; 0x1d
	.space	4
	.quad	l_.str.39
	.long	30                              ; 0x1e
	.space	4
	.quad	l_.str.14
	.long	26                              ; 0x1a
	.space	4
	.quad	l_.str.62
	.long	0                               ; 0x0
	.space	4
	.quad	l_.str.16
	.long	29                              ; 0x1d
	.space	4
	.quad	l_.str.13
	.long	30                              ; 0x1e
	.space	4
	.quad	l_.str.14
	.long	27                              ; 0x1b
	.space	4
	.quad	l_.str.63
	.long	0                               ; 0x0
	.space	4
	.quad	l_.str.16

	.section	__TEXT,__cstring,cstring_literals
l_.str.64:                              ; @.str.64
	.asciz	"True / False"

l_.str.65:                              ; @.str.65
	.asciz	"14days = 14; 21jump_street = 9;"

l_.str.66:                              ; @.str.66
	.asciz	"14"

l_.str.67:                              ; @.str.67
	.asciz	"days"

l_.str.68:                              ; @.str.68
	.asciz	"21"

l_.str.69:                              ; @.str.69
	.asciz	"jump_street"

	.section	__DATA,__const
	.p2align	3                               ; @__const.main.test_bad_names_expected
l___const.main.test_bad_names_expected:
	.long	28                              ; 0x1c
	.space	4
	.quad	l_.str.66
	.long	29                              ; 0x1d
	.space	4
	.quad	l_.str.67
	.long	30                              ; 0x1e
	.space	4
	.quad	l_.str.14
	.long	28                              ; 0x1c
	.space	4
	.quad	l_.str.66
	.long	0                               ; 0x0
	.space	4
	.quad	l_.str.16
	.long	28                              ; 0x1c
	.space	4
	.quad	l_.str.68
	.long	29                              ; 0x1d
	.space	4
	.quad	l_.str.69
	.long	30                              ; 0x1e
	.space	4
	.quad	l_.str.14
	.long	28                              ; 0x1c
	.space	4
	.quad	l_.str.9
	.long	0                               ; 0x0
	.space	4
	.quad	l_.str.16

	.section	__TEXT,__cstring,cstring_literals
l_.str.70:                              ; @.str.70
	.asciz	"Bad names"

l_.str.71:                              ; @.str.71
	.asciz	"j = 9:;\nj=9.9,\nx=10?;"

l_.str.72:                              ; @.str.72
	.asciz	"9.9"

l_.str.73:                              ; @.str.73
	.asciz	"10"

	.section	__DATA,__const
	.p2align	3                               ; @__const.main.test_line_column_number_expected
l___const.main.test_line_column_number_expected:
	.long	29                              ; 0x1d
	.space	4
	.quad	l_.str.13
	.long	30                              ; 0x1e
	.space	4
	.quad	l_.str.14
	.long	28                              ; 0x1c
	.space	4
	.quad	l_.str.9
	.long	0                               ; 0x0
	.space	4
	.quad	l_.str.16
	.long	29                              ; 0x1d
	.space	4
	.quad	l_.str.13
	.long	30                              ; 0x1e
	.space	4
	.quad	l_.str.14
	.long	28                              ; 0x1c
	.space	4
	.quad	l_.str.72
	.long	29                              ; 0x1d
	.space	4
	.quad	l_.str.7
	.long	30                              ; 0x1e
	.space	4
	.quad	l_.str.14
	.long	28                              ; 0x1c
	.space	4
	.quad	l_.str.73
	.long	0                               ; 0x0
	.space	4
	.quad	l_.str.16

	.section	__TEXT,__cstring,cstring_literals
l_.str.74:                              ; @.str.74
	.asciz	"Expecting 1st error at line 1 col 6.\nExpecting 2nd error at line 2 col 6\nExpecting 3rd error at line 3 col 5\n"

l_.str.75:                              ; @.str.75
	.asciz	"test line and column numbers"

l_.str.76:                              ; @.str.76
	.asciz	"do j++ while (j < 30); if (j == 0) then j--; else if (j == 20) then j++; else j = j+4;\n"

l_.str.77:                              ; @.str.77
	.asciz	"do"

l_.str.78:                              ; @.str.78
	.asciz	"while"

l_.str.79:                              ; @.str.79
	.asciz	"30"

l_.str.80:                              ; @.str.80
	.asciz	"if"

l_.str.81:                              ; @.str.81
	.asciz	"=="

l_.str.82:                              ; @.str.82
	.asciz	"then"

l_.str.83:                              ; @.str.83
	.asciz	"else"

l_.str.84:                              ; @.str.84
	.asciz	"20"

l_.str.85:                              ; @.str.85
	.asciz	"4"

	.section	__DATA,__const
	.p2align	3                               ; @__const.main.test_keywords_again_expected
l___const.main.test_keywords_again_expected:
	.long	32                              ; 0x20
	.space	4
	.quad	l_.str.77
	.long	29                              ; 0x1d
	.space	4
	.quad	l_.str.13
	.long	3                               ; 0x3
	.space	4
	.quad	l_.str.17
	.long	36                              ; 0x24
	.space	4
	.quad	l_.str.78
	.long	1                               ; 0x1
	.space	4
	.quad	l_.str.20
	.long	29                              ; 0x1d
	.space	4
	.quad	l_.str.13
	.long	20                              ; 0x14
	.space	4
	.quad	l_.str.40
	.long	28                              ; 0x1c
	.space	4
	.quad	l_.str.79
	.long	2                               ; 0x2
	.space	4
	.quad	l_.str.26
	.long	0                               ; 0x0
	.space	4
	.quad	l_.str.16
	.long	31                              ; 0x1f
	.space	4
	.quad	l_.str.80
	.long	1                               ; 0x1
	.space	4
	.quad	l_.str.20
	.long	29                              ; 0x1d
	.space	4
	.quad	l_.str.13
	.long	22                              ; 0x16
	.space	4
	.quad	l_.str.81
	.long	28                              ; 0x1c
	.space	4
	.quad	l_.str.15
	.long	2                               ; 0x2
	.space	4
	.quad	l_.str.26
	.long	35                              ; 0x23
	.space	4
	.quad	l_.str.82
	.long	29                              ; 0x1d
	.space	4
	.quad	l_.str.13
	.long	4                               ; 0x4
	.space	4
	.quad	l_.str.31
	.long	0                               ; 0x0
	.space	4
	.quad	l_.str.16
	.long	34                              ; 0x22
	.space	4
	.quad	l_.str.83
	.long	31                              ; 0x1f
	.space	4
	.quad	l_.str.80
	.long	1                               ; 0x1
	.space	4
	.quad	l_.str.20
	.long	29                              ; 0x1d
	.space	4
	.quad	l_.str.13
	.long	22                              ; 0x16
	.space	4
	.quad	l_.str.81
	.long	28                              ; 0x1c
	.space	4
	.quad	l_.str.84
	.long	2                               ; 0x2
	.space	4
	.quad	l_.str.26
	.long	35                              ; 0x23
	.space	4
	.quad	l_.str.82
	.long	29                              ; 0x1d
	.space	4
	.quad	l_.str.13
	.long	3                               ; 0x3
	.space	4
	.quad	l_.str.17
	.long	0                               ; 0x0
	.space	4
	.quad	l_.str.16
	.long	34                              ; 0x22
	.space	4
	.quad	l_.str.83
	.long	29                              ; 0x1d
	.space	4
	.quad	l_.str.13
	.long	30                              ; 0x1e
	.space	4
	.quad	l_.str.14
	.long	29                              ; 0x1d
	.space	4
	.quad	l_.str.13
	.long	11                              ; 0xb
	.space	4
	.quad	l_.str.8
	.long	28                              ; 0x1c
	.space	4
	.quad	l_.str.85
	.long	0                               ; 0x0
	.space	4
	.quad	l_.str.16

	.section	__TEXT,__cstring,cstring_literals
l_.str.86:                              ; @.str.86
	.asciz	"test keywords."

l_.str.87:                              ; @.str.87
	.asciz	"greeting = \"hello, Bob!\";"

l_.str.88:                              ; @.str.88
	.asciz	"greeting"

l_.str.89:                              ; @.str.89
	.asciz	"\"hello, Bob!\""

	.section	__DATA,__const
	.p2align	3                               ; @__const.main.test_string_recognition_expected
l___const.main.test_string_recognition_expected:
	.long	29                              ; 0x1d
	.space	4
	.quad	l_.str.88
	.long	30                              ; 0x1e
	.space	4
	.quad	l_.str.14
	.long	37                              ; 0x25
	.space	4
	.quad	l_.str.89
	.long	0                               ; 0x0
	.space	4
	.quad	l_.str.16

	.section	__TEXT,__cstring,cstring_literals
l_.str.90:                              ; @.str.90
	.asciz	"test string recognition"

l_.str.91:                              ; @.str.91
	.asciz	"j = 9; name = \"joseph\"; joseph = name + 9;"

l_.str.92:                              ; @.str.92
	.asciz	"name"

l_.str.93:                              ; @.str.93
	.asciz	"\"joseph\""

l_.str.94:                              ; @.str.94
	.asciz	"joseph"

	.section	__DATA,__const
	.p2align	3                               ; @__const.main.test_numbers_and_strings_expected
l___const.main.test_numbers_and_strings_expected:
	.long	29                              ; 0x1d
	.space	4
	.quad	l_.str.13
	.long	30                              ; 0x1e
	.space	4
	.quad	l_.str.14
	.long	28                              ; 0x1c
	.space	4
	.quad	l_.str.9
	.long	0                               ; 0x0
	.space	4
	.quad	l_.str.16
	.long	29                              ; 0x1d
	.space	4
	.quad	l_.str.92
	.long	30                              ; 0x1e
	.space	4
	.quad	l_.str.14
	.long	37                              ; 0x25
	.space	4
	.quad	l_.str.93
	.long	0                               ; 0x0
	.space	4
	.quad	l_.str.16
	.long	29                              ; 0x1d
	.space	4
	.quad	l_.str.94
	.long	30                              ; 0x1e
	.space	4
	.quad	l_.str.14
	.long	29                              ; 0x1d
	.space	4
	.quad	l_.str.92
	.long	11                              ; 0xb
	.space	4
	.quad	l_.str.8
	.long	28                              ; 0x1c
	.space	4
	.quad	l_.str.9
	.long	0                               ; 0x0
	.space	4
	.quad	l_.str.16

	.section	__TEXT,__cstring,cstring_literals
l_.str.95:                              ; @.str.95
	.asciz	"test numbers and strings"

l_.str.96:                              ; @.str.96
	.asciz	"dl{sdlfkjsdlkj}sdfkjsldkfj;"

l_.str.97:                              ; @.str.97
	.asciz	"dl"

l_.str.98:                              ; @.str.98
	.asciz	"{"

l_.str.99:                              ; @.str.99
	.asciz	"sdlfkjsdlkj"

l_.str.100:                             ; @.str.100
	.asciz	"}"

l_.str.101:                             ; @.str.101
	.asciz	"sdfkjsldkfj"

	.section	__DATA,__const
	.p2align	3                               ; @__const.main.test_lbrace_rbrace_expected
l___const.main.test_lbrace_rbrace_expected:
	.long	29                              ; 0x1d
	.space	4
	.quad	l_.str.97
	.long	38                              ; 0x26
	.space	4
	.quad	l_.str.98
	.long	29                              ; 0x1d
	.space	4
	.quad	l_.str.99
	.long	39                              ; 0x27
	.space	4
	.quad	l_.str.100
	.long	29                              ; 0x1d
	.space	4
	.quad	l_.str.101
	.long	0                               ; 0x0
	.space	4
	.quad	l_.str.16

	.section	__TEXT,__cstring,cstring_literals
l_.str.102:                             ; @.str.102
	.asciz	"test lbrace and rbrace"

l_.str.103:                             ; @.str.103
	.asciz	"dl$sdlfkjsdlkj$sdfkjsldkfj;$"

l_.str.104:                             ; @.str.104
	.asciz	"$"

	.section	__DATA,__const
	.p2align	3                               ; @__const.main.test_dollar_expected
l___const.main.test_dollar_expected:
	.long	29                              ; 0x1d
	.space	4
	.quad	l_.str.97
	.long	40                              ; 0x28
	.space	4
	.quad	l_.str.104
	.long	29                              ; 0x1d
	.space	4
	.quad	l_.str.99
	.long	40                              ; 0x28
	.space	4
	.quad	l_.str.104
	.long	29                              ; 0x1d
	.space	4
	.quad	l_.str.101
	.long	0                               ; 0x0
	.space	4
	.quad	l_.str.16
	.long	40                              ; 0x28
	.space	4
	.quad	l_.str.104

	.section	__TEXT,__cstring,cstring_literals
l_.str.105:                             ; @.str.105
	.asciz	"test dollar"

l_.str.106:                             ; @.str.106
	.asciz	"dl[sdlfkjsdlkj]sdfkjsldkfj;["

l_.str.107:                             ; @.str.107
	.asciz	"["

l_.str.108:                             ; @.str.108
	.asciz	"]"

	.section	__DATA,__const
	.p2align	3                               ; @__const.main.test_lsquare_rsquare_expected
l___const.main.test_lsquare_rsquare_expected:
	.long	29                              ; 0x1d
	.space	4
	.quad	l_.str.97
	.long	41                              ; 0x29
	.space	4
	.quad	l_.str.107
	.long	29                              ; 0x1d
	.space	4
	.quad	l_.str.99
	.long	42                              ; 0x2a
	.space	4
	.quad	l_.str.108
	.long	29                              ; 0x1d
	.space	4
	.quad	l_.str.101
	.long	0                               ; 0x0
	.space	4
	.quad	l_.str.16
	.long	41                              ; 0x29
	.space	4
	.quad	l_.str.107

	.section	__TEXT,__cstring,cstring_literals
l_.str.109:                             ; @.str.109
	.asciz	"test lsquare and rsquare"

l_.str.110:                             ; @.str.110
	.asciz	"let i = 0; let f(x) = f(x){x#3;}; let k = $while(i < 0) do {f(i); i++}$;"

l_.str.111:                             ; @.str.111
	.asciz	"let"

l_.str.112:                             ; @.str.112
	.asciz	"i"

l_.str.113:                             ; @.str.113
	.asciz	"#"

	.section	__DATA,__const
	.p2align	3                               ; @__const.main.test_valid_program_expected
l___const.main.test_valid_program_expected:
	.long	44                              ; 0x2c
	.space	4
	.quad	l_.str.111
	.long	29                              ; 0x1d
	.space	4
	.quad	l_.str.112
	.long	30                              ; 0x1e
	.space	4
	.quad	l_.str.14
	.long	28                              ; 0x1c
	.space	4
	.quad	l_.str.15
	.long	0                               ; 0x0
	.space	4
	.quad	l_.str.16
	.long	44                              ; 0x2c
	.space	4
	.quad	l_.str.111
	.long	29                              ; 0x1d
	.space	4
	.quad	l_.str.59
	.long	1                               ; 0x1
	.space	4
	.quad	l_.str.20
	.long	29                              ; 0x1d
	.space	4
	.quad	l_.str.7
	.long	2                               ; 0x2
	.space	4
	.quad	l_.str.26
	.long	30                              ; 0x1e
	.space	4
	.quad	l_.str.14
	.long	29                              ; 0x1d
	.space	4
	.quad	l_.str.59
	.long	1                               ; 0x1
	.space	4
	.quad	l_.str.20
	.long	29                              ; 0x1d
	.space	4
	.quad	l_.str.7
	.long	2                               ; 0x2
	.space	4
	.quad	l_.str.26
	.long	38                              ; 0x26
	.space	4
	.quad	l_.str.98
	.long	29                              ; 0x1d
	.space	4
	.quad	l_.str.7
	.long	7                               ; 0x7
	.space	4
	.quad	l_.str.113
	.long	28                              ; 0x1c
	.space	4
	.quad	l_.str.34
	.long	0                               ; 0x0
	.space	4
	.quad	l_.str.16
	.long	39                              ; 0x27
	.space	4
	.quad	l_.str.100
	.long	0                               ; 0x0
	.space	4
	.quad	l_.str.16
	.long	44                              ; 0x2c
	.space	4
	.quad	l_.str.111
	.long	29                              ; 0x1d
	.space	4
	.quad	l_.str.39
	.long	30                              ; 0x1e
	.space	4
	.quad	l_.str.14
	.long	40                              ; 0x28
	.space	4
	.quad	l_.str.104
	.long	36                              ; 0x24
	.space	4
	.quad	l_.str.78
	.long	1                               ; 0x1
	.space	4
	.quad	l_.str.20
	.long	29                              ; 0x1d
	.space	4
	.quad	l_.str.112
	.long	20                              ; 0x14
	.space	4
	.quad	l_.str.40
	.long	28                              ; 0x1c
	.space	4
	.quad	l_.str.15
	.long	2                               ; 0x2
	.space	4
	.quad	l_.str.26
	.long	32                              ; 0x20
	.space	4
	.quad	l_.str.77
	.long	38                              ; 0x26
	.space	4
	.quad	l_.str.98
	.long	29                              ; 0x1d
	.space	4
	.quad	l_.str.59
	.long	1                               ; 0x1
	.space	4
	.quad	l_.str.20
	.long	29                              ; 0x1d
	.space	4
	.quad	l_.str.112
	.long	2                               ; 0x2
	.space	4
	.quad	l_.str.26
	.long	0                               ; 0x0
	.space	4
	.quad	l_.str.16
	.long	29                              ; 0x1d
	.space	4
	.quad	l_.str.112
	.long	3                               ; 0x3
	.space	4
	.quad	l_.str.17
	.long	39                              ; 0x27
	.space	4
	.quad	l_.str.100
	.long	40                              ; 0x28
	.space	4
	.quad	l_.str.104
	.long	0                               ; 0x0
	.space	4
	.quad	l_.str.16

	.section	__TEXT,__cstring,cstring_literals
l_.str.114:                             ; @.str.114
	.asciz	"test valid program"

l_.str.115:                             ; @.str.115
	.asciz	"report = \"This is the report of today.\nToday we simply sat on our asses and watched a bunch of tv.\nand then we went outside and ate some lunch.\nand THEN and ONLY then did we decide to work.\nAnd oh boy! did we work! yes we worked! We wrote 10,000 lines of code in the end.\nToday we simply sat on our asses and watched a bunch of tv.\nand then we went outside and ate some lunch.\nand THEN and ONLY then did we decide to work.\nAnd oh boy! did we work! yes we worked! We wrote 10,000 lines of code in the end.\nToday we simply sat on our asses and watched a bunch of tv.\nand then we went outside and ate some lunch.\nand THEN and ONLY then did we decide to work.\nAnd oh boy! did we work! yes we worked! We wrote 10,000 lines of code in the end.\nToday we simply sat on our asses and watched a bunch of tv.\nand then we went outside and ate some lunch.\nand THEN and ONLY then did we decide to work.\nAnd oh boy! did we work! yes we worked! We wrote 10,000 lines of code in the end.\nToday we simply sat on our asses and watched a bunch of tv.\nand then we went outside and ate some lunch.\nand THEN and ONLY then did we decide to work.\nAnd oh boy! did we work! yes we worked! We wrote 10,000 lines of code in the end.\nToday we simply sat on our asses and watched a bunch of tv.\nand then we went outside and ate some lunch.\nand THEN and ONLY then did we decide to work.\nAnd oh boy! did we work! yes we worked! We wrote 10,000 lines of code in the end.\nToday we simply sat on our asses and watched a bunch of tv.\nand then we went outside and ate some lunch.\nand THEN and ONLY then did we decide to work.\nAnd oh boy! did we work! yes we worked! We wrote 10,000 lines of code in the end.\nToday we simply sat on our asses and watched a bunch of tv.\nand then we went outside and ate some lunch.\nand THEN and ONLY then did we decide to work.\nAnd oh boy! did we work! yes we worked! We wrote 10,000 lines of code in the end.\nToday we simply sat on our asses and watched a bunch of tv.\nand then we went outside and ate some lunch.\nand THEN and ONLY then did we decide to work.\nAnd oh boy! did we work! yes we worked! We wrote 10,000 lines of code in the end.\nToday we simply sat on our asses and watched a bunch of tv.\nand then we went outside and ate some lunch.\nand THEN and ONLY then did we decide to work.\nAnd oh boy! did we work! yes we worked! We wrote 10,000 lines of code in the end.\nToday we simply sat on our asses and watched a bunch of tv.\nand then we went outside and ate some lunch.\nand THEN and ONLY then did we decide to work.\nAnd oh boy! did we work! yes we worked! We wrote 10,000 lines of code in the end.\n\";"

l_.str.116:                             ; @.str.116
	.asciz	"report"

l_.str.117:                             ; @.str.117
	.asciz	"\"This is the report of today.\nToday we simply sat on our asses and watched a bunch of tv.\nand then we went outside and ate some lunch.\nand THEN and ONLY then did we decide to work.\nAnd oh boy! did we work! yes we worked! We wrote 10,000 lines of code in the end.\nToday we simply sat on our asses and watched a bunch of tv.\nand then we went outside and ate some lunch.\nand THEN and ONLY then did we decide to work.\nAnd oh boy! did we work! yes we worked! We wrote 10,000 lines of code in the end.\nToday we simply sat on our asses and watched a bunch of tv.\nand then we went outside and ate some lunch.\nand THEN and ONLY then did we decide to work.\nAnd oh boy! did we work! yes we worked! We wrote 10,000 lines of code in the end.\nToday we simply sat on our asses and watched a bunch of tv.\nand then we went outside and ate some lunch.\nand THEN and ONLY then did we decide to work.\nAnd oh boy! did we work! yes we worked! We wrote 10,000 lines of code in the end.\nToday we simply sat on our asses and watched a bunch of tv.\nand then we went outside and ate some lunch.\nand THEN and ONLY then did we decide to work.\nAnd oh boy! did we work! yes we worked! We wrote 10,000 lines of code in the end.\nToday we simply sat on our asses and watched a bunch of tv.\nand then we went outside and ate some lunch.\nand THEN and ONLY then did we decide to work.\nAnd oh boy! did we work! yes we worked! We wrote 10,000 lines of code in the end.\nToday we simply sat on our asses and watched a bunch of tv.\nand then we went outside and ate some lunch.\nand THEN and ONLY then did we decide to work.\nAnd oh boy! did we work! yes we worked! We wrote 10,000 lines of code in the end.\nToday we simply sat on our asses and watched a bunch of tv.\nand then we went outside and ate some lunch.\nand THEN and ONLY then did we decide to work.\nAnd oh boy! did we work! yes we worked! We wrote 10,000 lines of code in the end.\nToday we simply sat on our asses and watched a bunch of tv.\nand then we went outside and ate some lunch.\nand THEN and ONLY then did we decide to work.\nAnd oh boy! did we work! yes we worked! We wrote 10,000 lines of code in the end.\nToday we simply sat on our asses and watched a bunch of tv.\nand then we went outside and ate some lunch.\nand THEN and ONLY then did we decide to work.\nAnd oh boy! did we work! yes we worked! We wrote 10,000 lines of code in the end.\nToday we simply sat on our asses and watched a bunch of tv.\nand then we went outside and ate some lunch.\nand THEN and ONLY then did we decide to work.\nAnd oh boy! did we work! yes we worked! We wrote 10,000 lines of code in the end.\n\""

	.section	__DATA,__const
	.p2align	3                               ; @__const.main.test_long_string_expected
l___const.main.test_long_string_expected:
	.long	29                              ; 0x1d
	.space	4
	.quad	l_.str.116
	.long	30                              ; 0x1e
	.space	4
	.quad	l_.str.14
	.long	37                              ; 0x25
	.space	4
	.quad	l_.str.117
	.long	0                               ; 0x0
	.space	4
	.quad	l_.str.16

	.section	__TEXT,__cstring,cstring_literals
l_.str.118:                             ; @.str.118
	.asciz	"test long string"

l_.str.119:                             ; @.str.119
	.asciz	"greeting = \"hello, Bob!\";\ncurse    = \"Curse you, Bob.\";\nlove     = \"All you need is love, Bob.\n\";"

l_.str.120:                             ; @.str.120
	.asciz	"curse"

l_.str.121:                             ; @.str.121
	.asciz	"\"Curse you, Bob.\""

l_.str.122:                             ; @.str.122
	.asciz	"love"

l_.str.123:                             ; @.str.123
	.asciz	"\"All you need is love, Bob.\n\""

	.section	__DATA,__const
	.p2align	3                               ; @__const.main.test_string_variable_assign_expected
l___const.main.test_string_variable_assign_expected:
	.long	29                              ; 0x1d
	.space	4
	.quad	l_.str.88
	.long	30                              ; 0x1e
	.space	4
	.quad	l_.str.14
	.long	37                              ; 0x25
	.space	4
	.quad	l_.str.89
	.long	0                               ; 0x0
	.space	4
	.quad	l_.str.16
	.long	29                              ; 0x1d
	.space	4
	.quad	l_.str.120
	.long	30                              ; 0x1e
	.space	4
	.quad	l_.str.14
	.long	37                              ; 0x25
	.space	4
	.quad	l_.str.121
	.long	0                               ; 0x0
	.space	4
	.quad	l_.str.16
	.long	29                              ; 0x1d
	.space	4
	.quad	l_.str.122
	.long	30                              ; 0x1e
	.space	4
	.quad	l_.str.14
	.long	37                              ; 0x25
	.space	4
	.quad	l_.str.123
	.long	0                               ; 0x0
	.space	4
	.quad	l_.str.16

	.section	__TEXT,__cstring,cstring_literals
l_.str.124:                             ; @.str.124
	.asciz	"test string variable_assign"

l_.str.125:                             ; @.str.125
	.asciz	"let func f(x) = {x+9.999;};\nlet func print_greeting(name) = {print(\"hello \" $name);};"

l_.str.126:                             ; @.str.126
	.asciz	"func"

l_.str.127:                             ; @.str.127
	.asciz	"9.999"

l_.str.128:                             ; @.str.128
	.asciz	"print_greeting"

l_.str.129:                             ; @.str.129
	.asciz	"print"

l_.str.130:                             ; @.str.130
	.asciz	"\"hello \""

	.section	__DATA,__const
	.p2align	3                               ; @__const.main.test_function_declaration_expected
l___const.main.test_function_declaration_expected:
	.long	44                              ; 0x2c
	.space	4
	.quad	l_.str.111
	.long	45                              ; 0x2d
	.space	4
	.quad	l_.str.126
	.long	29                              ; 0x1d
	.space	4
	.quad	l_.str.59
	.long	1                               ; 0x1
	.space	4
	.quad	l_.str.20
	.long	29                              ; 0x1d
	.space	4
	.quad	l_.str.7
	.long	2                               ; 0x2
	.space	4
	.quad	l_.str.26
	.long	30                              ; 0x1e
	.space	4
	.quad	l_.str.14
	.long	38                              ; 0x26
	.space	4
	.quad	l_.str.98
	.long	29                              ; 0x1d
	.space	4
	.quad	l_.str.7
	.long	11                              ; 0xb
	.space	4
	.quad	l_.str.8
	.long	28                              ; 0x1c
	.space	4
	.quad	l_.str.127
	.long	0                               ; 0x0
	.space	4
	.quad	l_.str.16
	.long	39                              ; 0x27
	.space	4
	.quad	l_.str.100
	.long	0                               ; 0x0
	.space	4
	.quad	l_.str.16
	.long	44                              ; 0x2c
	.space	4
	.quad	l_.str.111
	.long	45                              ; 0x2d
	.space	4
	.quad	l_.str.126
	.long	29                              ; 0x1d
	.space	4
	.quad	l_.str.128
	.long	1                               ; 0x1
	.space	4
	.quad	l_.str.20
	.long	29                              ; 0x1d
	.space	4
	.quad	l_.str.92
	.long	2                               ; 0x2
	.space	4
	.quad	l_.str.26
	.long	30                              ; 0x1e
	.space	4
	.quad	l_.str.14
	.long	38                              ; 0x26
	.space	4
	.quad	l_.str.98
	.long	46                              ; 0x2e
	.space	4
	.quad	l_.str.129
	.long	1                               ; 0x1
	.space	4
	.quad	l_.str.20
	.long	37                              ; 0x25
	.space	4
	.quad	l_.str.130
	.long	40                              ; 0x28
	.space	4
	.quad	l_.str.104
	.long	29                              ; 0x1d
	.space	4
	.quad	l_.str.92
	.long	2                               ; 0x2
	.space	4
	.quad	l_.str.26
	.long	0                               ; 0x0
	.space	4
	.quad	l_.str.16
	.long	39                              ; 0x27
	.space	4
	.quad	l_.str.100
	.long	0                               ; 0x0
	.space	4
	.quad	l_.str.16

	.section	__TEXT,__cstring,cstring_literals
l_.str.131:                             ; @.str.131
	.asciz	"test function declaration"

l_.str.132:                             ; @.str.132
	.asciz	"let empty_list = [];let singleton_list = [\"bob\"];let list = [\"bo\", \"zo\", \"the\", \"clown\"];"

l_.str.133:                             ; @.str.133
	.asciz	"empty_list"

l_.str.134:                             ; @.str.134
	.asciz	"singleton_list"

l_.str.135:                             ; @.str.135
	.asciz	"\"bob\""

l_.str.136:                             ; @.str.136
	.asciz	"list"

l_.str.137:                             ; @.str.137
	.asciz	"\"bo\""

l_.str.138:                             ; @.str.138
	.asciz	","

l_.str.139:                             ; @.str.139
	.asciz	"\"zo\""

l_.str.140:                             ; @.str.140
	.asciz	"\"the\""

l_.str.141:                             ; @.str.141
	.asciz	"\"clown\""

	.section	__DATA,__const
	.p2align	3                               ; @__const.main.test_array_recognition_expected
l___const.main.test_array_recognition_expected:
	.long	44                              ; 0x2c
	.space	4
	.quad	l_.str.111
	.long	29                              ; 0x1d
	.space	4
	.quad	l_.str.133
	.long	30                              ; 0x1e
	.space	4
	.quad	l_.str.14
	.long	41                              ; 0x29
	.space	4
	.quad	l_.str.107
	.long	42                              ; 0x2a
	.space	4
	.quad	l_.str.108
	.long	0                               ; 0x0
	.space	4
	.quad	l_.str.16
	.long	44                              ; 0x2c
	.space	4
	.quad	l_.str.111
	.long	29                              ; 0x1d
	.space	4
	.quad	l_.str.134
	.long	30                              ; 0x1e
	.space	4
	.quad	l_.str.14
	.long	41                              ; 0x29
	.space	4
	.quad	l_.str.107
	.long	37                              ; 0x25
	.space	4
	.quad	l_.str.135
	.long	42                              ; 0x2a
	.space	4
	.quad	l_.str.108
	.long	0                               ; 0x0
	.space	4
	.quad	l_.str.16
	.long	44                              ; 0x2c
	.space	4
	.quad	l_.str.111
	.long	29                              ; 0x1d
	.space	4
	.quad	l_.str.136
	.long	30                              ; 0x1e
	.space	4
	.quad	l_.str.14
	.long	41                              ; 0x29
	.space	4
	.quad	l_.str.107
	.long	37                              ; 0x25
	.space	4
	.quad	l_.str.137
	.long	43                              ; 0x2b
	.space	4
	.quad	l_.str.138
	.long	37                              ; 0x25
	.space	4
	.quad	l_.str.139
	.long	43                              ; 0x2b
	.space	4
	.quad	l_.str.138
	.long	37                              ; 0x25
	.space	4
	.quad	l_.str.140
	.long	43                              ; 0x2b
	.space	4
	.quad	l_.str.138
	.long	37                              ; 0x25
	.space	4
	.quad	l_.str.141
	.long	42                              ; 0x2a
	.space	4
	.quad	l_.str.108
	.long	0                               ; 0x0
	.space	4
	.quad	l_.str.16

	.section	__TEXT,__cstring,cstring_literals
l_.str.142:                             ; @.str.142
	.asciz	"test array recognition"

l_.str.143:                             ; @.str.143
	.asciz	"\n\n"

	.file	3 "/Library/Developer/CommandLineTools/SDKs/MacOSX.sdk/usr/include/arm" "_types.h"
	.file	4 "/Library/Developer/CommandLineTools/SDKs/MacOSX.sdk/usr/include/sys/_types" "_size_t.h"